target datalayout = "e-m:e-p270:32:32-p271:32:32-p272:64:64-i64:64-i128:128-f80:128-n8:16:32:64-S128"
target triple = "x86_64-pc-linux-gnu"

%struct._zend_compiler_globals = type { %struct._zend_stack, ptr, ptr, i32, ptr, ptr, ptr, ptr, i8, i8, i8, i8, i8, %struct._zend_llist, ptr, i8, i8, i8, i8, ptr, i32, i32, %struct._zend_oparray_context, %struct._zend_file_context, ptr, %struct._zend_array, ptr, i64, i8, i8, i8, ptr, ptr, %struct._zend_stack, ptr, i32, ptr, ptr, i64, i64, ptr, ptr, ptr, ptr, i32, ptr, i32, %struct._zend_stack }
%struct._zend_llist = type { ptr, ptr, i64, i64, ptr, i8, ptr }
%struct._zend_oparray_context = type { ptr, ptr, i32, i32, i32, i32, i32, i32, i32, ptr, ptr, ptr, i32, i8 }
%struct._zend_file_context = type { %struct._zend_declarables, ptr, i8, i8, ptr, ptr, ptr, %struct._zend_array }
%struct._zend_declarables = type { i64 }
%struct._zend_array = type { %struct._zend_refcounted_h, %union.anon.1, i32, %union.anon.2, i32, i32, i32, i32, i64, ptr }
%struct._zend_refcounted_h = type { i32, %union.anon.0 }
%union.anon.0 = type { i32 }
%union.anon.1 = type { i32 }
%union.anon.2 = type { ptr }
%struct._zend_stack = type { i32, i32, i32, ptr }
%struct._zend_executor_globals = type { %struct._zval_struct, %struct._zval_struct, [32 x ptr], ptr, ptr, %struct._zend_array, %struct._zend_array, ptr, i32, i8, %struct._zval_struct, i32, ptr, ptr, ptr, ptr, ptr, ptr, i64, ptr, ptr, i32, ptr, i32, i64, i32, i32, i32, i8, i8, %struct.zend_atomic_bool_s, %struct.zend_atomic_bool_s, ptr, i64, ptr, ptr, %struct._zend_array, %struct._zend_array, i32, i8, %struct._zval_struct, %struct._zval_struct, %struct._zend_stack, %struct._zend_stack, %struct._zend_stack, ptr, i32, i32, i64, ptr, ptr, ptr, %struct._zend_objects_store, %struct._zend_lazy_objects_store, ptr, ptr, ptr, [3 x %struct._zend_op], ptr, i8, i8, i64, i32, i32, ptr, [16 x %struct._HashTableIterator], ptr, %union._zend_function, %struct._zend_op, %struct._zend_array, i64, %struct.zend_get_gc_buffer, ptr, ptr, ptr, i64, i8, i32, ptr, ptr, i64, %struct._zend_call_stack, i64, i64, %struct._zend_strtod_state, [6 x ptr] }
%struct.zend_atomic_bool_s = type { i8 }
%struct._zval_struct = type { %union._zend_value, %union.anon.9, %union.anon.12 }
%union._zend_value = type { i64 }
%union.anon.9 = type { i32 }
%union.anon.12 = type { i32 }
%struct._zend_objects_store = type { ptr, i32, i32, i32 }
%struct._zend_lazy_objects_store = type { %struct._zend_array }
%struct._HashTableIterator = type { ptr, i32, i32 }
%union._zend_function = type { %struct._zend_op_array }
%struct._zend_op_array = type { i8, [3 x i8], i32, ptr, ptr, ptr, i32, i32, ptr, ptr, ptr, ptr, i32, ptr, i32, i32, i32, ptr, ptr, ptr, ptr, ptr, i32, i32, ptr, ptr, ptr, i32, i32, i32, i32, ptr, ptr, [6 x ptr] }
%struct._zend_op = type { ptr, %union._znode_op, %union._znode_op, %union._znode_op, i32, i32, i8, i8, i8, i8 }
%union._znode_op = type { i32 }
%struct.zend_get_gc_buffer = type { ptr, ptr, ptr }
%struct._zend_call_stack = type { ptr, i64 }
%struct._zend_strtod_state = type { [8 x ptr], ptr, ptr }
%struct._zend_string = type { %struct._zend_refcounted_h, i64, i64, [1 x i8] }
%struct._zend_class_entry = type { i8, ptr, %union.anon, i32, i32, i32, i32, ptr, ptr, ptr, %struct._zend_array, %struct._zend_array, %struct._zend_array, ptr, ptr, ptr, ptr, ptr, ptr, ptr, ptr, ptr, ptr, ptr, ptr, ptr, ptr, ptr, ptr, ptr, ptr, ptr, %union.anon.3, ptr, ptr, ptr, ptr, i32, i32, i32, i32, %union.anon.4, ptr, ptr, ptr, ptr, i32, ptr, ptr, %union.anon.5 }
%union.anon = type { ptr }
%union.anon.3 = type { ptr }
%union.anon.4 = type { ptr }
%union.anon.5 = type { %struct.anon.6 }
%struct.anon.6 = type { ptr, i32, i32 }
%struct._Bucket = type { %struct._zval_struct, i64, ptr }
%struct.anon.10 = type { i8, i8, %union.anon.11 }
%union.anon.11 = type { i16 }
%struct.anon.13 = type { i8, [3 x i8], i32, ptr, ptr, ptr, i32, i32, ptr, ptr, ptr, ptr, i32, ptr }

@compiler_globals = external global %struct._zend_compiler_globals, align 8
@executor_globals = external global %struct._zend_executor_globals, align 8
@.str.51 = private unnamed_addr constant [83 x i8] c"Could not check compatibility between %s and %s, because class %s is not available\00", align 1
@.str.52 = private unnamed_addr constant [21 x i8] c"returntypewillchange\00", align 1
@.str.53 = private unnamed_addr constant [147 x i8] c"Return type of %s should either be compatible with %s, or the #[\\ReturnTypeWillChange] attribute should be used to temporarily suppress the notice\00", align 1
@.str.54 = private unnamed_addr constant [25 x i8] c"During inheritance of %s\00", align 1
@.str.55 = private unnamed_addr constant [45 x i8] c"Declaration of %s must be compatible with %s\00", align 1

; Function Attrs: alwaysinline nounwind uwtable
define internal void @zend_string_efree(ptr noundef %0) #3 {
  %2 = alloca ptr, align 8
  store ptr %0, ptr %2, align 8, !tbaa !19
  %3 = load ptr, ptr %2, align 8, !tbaa !19
  call void @_efree(ptr noundef %3)
  ret void
}

; Function Attrs: alwaysinline nounwind uwtable
define internal i32 @func_lineno(ptr noundef %0) #3 {
  %2 = alloca ptr, align 8
  store ptr %0, ptr %2, align 8, !tbaa !73
  %3 = load ptr, ptr %2, align 8, !tbaa !73
  %4 = getelementptr inbounds nuw %struct.anon.13, ptr %3, i32 0, i32 0
  %5 = load i8, ptr %4, align 8, !tbaa !46
  %6 = zext i8 %5 to i32
  %7 = icmp eq i32 %6, 2
  br i1 %7, label %8, label %12

8:                                                ; preds = %1
  %9 = load ptr, ptr %2, align 8, !tbaa !73
  %10 = getelementptr inbounds nuw %struct._zend_op_array, ptr %9, i32 0, i32 27
  %11 = load i32, ptr %10, align 8, !tbaa !46
  br label %13

12:                                               ; preds = %1
  br label %13

13:                                               ; preds = %12, %8
  %14 = phi i32 [ %11, %8 ], [ 0, %12 ]
  ret i32 %14
}

; Function Attrs: alwaysinline nounwind uwtable
define internal ptr @func_filename(ptr noundef %0) #3 {
  %2 = alloca ptr, align 8
  store ptr %0, ptr %2, align 8, !tbaa !73
  %3 = load ptr, ptr %2, align 8, !tbaa !73
  %4 = getelementptr inbounds nuw %struct.anon.13, ptr %3, i32 0, i32 0
  %5 = load i8, ptr %4, align 8, !tbaa !46
  %6 = zext i8 %5 to i32
  %7 = icmp eq i32 %6, 2
  br i1 %7, label %8, label %12

8:                                                ; preds = %1
  %9 = load ptr, ptr %2, align 8, !tbaa !73
  %10 = getelementptr inbounds nuw %struct._zend_op_array, ptr %9, i32 0, i32 26
  %11 = load ptr, ptr %10, align 8, !tbaa !46
  br label %13

12:                                               ; preds = %1
  br label %13

13:                                               ; preds = %12, %8
  %14 = phi ptr [ %11, %8 ], [ null, %12 ]
  ret ptr %14
}

; Function Attrs: alwaysinline nounwind uwtable
define internal zeroext i8 @zval_get_type(ptr noundef %0) #3 {
  %2 = alloca ptr, align 8
  store ptr %0, ptr %2, align 8, !tbaa !51
  %3 = load ptr, ptr %2, align 8, !tbaa !51
  %4 = getelementptr inbounds nuw %struct._zval_struct, ptr %3, i32 0, i32 1
  %5 = getelementptr inbounds nuw %struct.anon.10, ptr %4, i32 0, i32 0
  %6 = load i8, ptr %5, align 8, !tbaa !46
  ret i8 %6
}

; Function Attrs: nounwind uwtable
define internal void @emit_incompatible_method_error(ptr noundef %0, ptr noundef %1, ptr noundef %2, ptr noundef %3, i32 noundef %4) #0 {
  %6 = alloca ptr, align 8
  %7 = alloca ptr, align 8
  %8 = alloca ptr, align 8
  %9 = alloca ptr, align 8
  %10 = alloca i32, align 4
  %11 = alloca ptr, align 8
  %12 = alloca ptr, align 8
  %13 = alloca ptr, align 8
  %14 = alloca ptr, align 8
  %15 = alloca ptr, align 8
  %16 = alloca ptr, align 8
  %17 = alloca ptr, align 8
  %18 = alloca i32, align 4
  %19 = alloca ptr, align 8
  store ptr %0, ptr %6, align 8, !tbaa !73
  store ptr %1, ptr %7, align 8, !tbaa !8
  store ptr %2, ptr %8, align 8, !tbaa !73
  store ptr %3, ptr %9, align 8, !tbaa !8
  store i32 %4, ptr %10, align 4, !tbaa !4
  call void @llvm.lifetime.start.p0(i64 8, ptr %11) #19
  %20 = load ptr, ptr %8, align 8, !tbaa !73
  %21 = load ptr, ptr %9, align 8, !tbaa !8
  %22 = call ptr @zend_get_function_declaration(ptr noundef %20, ptr noundef %21)
  store ptr %22, ptr %11, align 8, !tbaa !19
  call void @llvm.lifetime.start.p0(i64 8, ptr %12) #19
  %23 = load ptr, ptr %6, align 8, !tbaa !73
  %24 = load ptr, ptr %7, align 8, !tbaa !8
  %25 = call ptr @zend_get_function_declaration(ptr noundef %23, ptr noundef %24)
  store ptr %25, ptr %12, align 8, !tbaa !19
  %26 = load i32, ptr %10, align 4, !tbaa !4
  %27 = icmp eq i32 %26, -1
  br i1 %27, label %28, label %94

28:                                               ; preds = %5
  call void @llvm.lifetime.start.p0(i64 8, ptr %13) #19
  store ptr null, ptr %13, align 8, !tbaa !19
  br label %29

29:                                               ; preds = %28
  call void @llvm.lifetime.start.p0(i64 8, ptr %14) #19
  %30 = load ptr, ptr getelementptr inbounds nuw (%struct._zend_compiler_globals, ptr @compiler_globals, i32 0, i32 41), align 8, !tbaa !204
  store ptr %30, ptr %14, align 8, !tbaa !47
  call void @llvm.lifetime.start.p0(i64 8, ptr %15) #19
  %31 = load ptr, ptr %14, align 8, !tbaa !47
  %32 = getelementptr inbounds nuw %struct._zend_array, ptr %31, i32 0, i32 3
  %33 = load ptr, ptr %32, align 8, !tbaa !46
  %34 = getelementptr inbounds %struct._Bucket, ptr %33, i64 0
  store ptr %34, ptr %15, align 8, !tbaa !48
  call void @llvm.lifetime.start.p0(i64 8, ptr %16) #19
  %35 = load ptr, ptr %14, align 8, !tbaa !47
  %36 = getelementptr inbounds nuw %struct._zend_array, ptr %35, i32 0, i32 3
  %37 = load ptr, ptr %36, align 8, !tbaa !46
  %38 = load ptr, ptr %14, align 8, !tbaa !47
  %39 = getelementptr inbounds nuw %struct._zend_array, ptr %38, i32 0, i32 4
  %40 = load i32, ptr %39, align 8, !tbaa !50
  %41 = zext i32 %40 to i64
  %42 = getelementptr inbounds nuw %struct._Bucket, ptr %37, i64 %41
  store ptr %42, ptr %16, align 8, !tbaa !48
  %43 = load ptr, ptr %14, align 8, !tbaa !47
  %44 = getelementptr inbounds nuw %struct._zend_array, ptr %43, i32 0, i32 1
  %45 = load i32, ptr %44, align 8, !tbaa !46
  %46 = and i32 %45, 4
  %47 = icmp ne i32 %46, 0
  %48 = xor i1 %47, true
  call void @llvm.assume(i1 %48)
  br label %49

49:                                               ; preds = %73, %29
  %50 = load ptr, ptr %15, align 8, !tbaa !48
  %51 = load ptr, ptr %16, align 8, !tbaa !48
  %52 = icmp ne ptr %50, %51
  br i1 %52, label %53, label %76

53:                                               ; preds = %49
  call void @llvm.lifetime.start.p0(i64 8, ptr %17) #19
  %54 = load ptr, ptr %15, align 8, !tbaa !48
  %55 = getelementptr inbounds nuw %struct._Bucket, ptr %54, i32 0, i32 0
  store ptr %55, ptr %17, align 8, !tbaa !51
  %56 = load ptr, ptr %17, align 8, !tbaa !51
  %57 = call zeroext i8 @zval_get_type(ptr noundef %56)
  %58 = zext i8 %57 to i32
  %59 = icmp eq i32 %58, 0
  %60 = xor i1 %59, true
  %61 = xor i1 %60, true
  %62 = zext i1 %61 to i32
  %63 = sext i32 %62 to i64
  %64 = call i64 @llvm.expect.i64(i64 %63, i64 0)
  %65 = icmp ne i64 %64, 0
  br i1 %65, label %66, label %67

66:                                               ; preds = %53
  store i32 6, ptr %18, align 4
  br label %71

67:                                               ; preds = %53
  %68 = load ptr, ptr %15, align 8, !tbaa !48
  %69 = getelementptr inbounds nuw %struct._Bucket, ptr %68, i32 0, i32 2
  %70 = load ptr, ptr %69, align 8, !tbaa !94
  store ptr %70, ptr %13, align 8, !tbaa !19
  store i32 4, ptr %18, align 4
  br label %71

71:                                               ; preds = %67, %66
  call void @llvm.lifetime.end.p0(i64 8, ptr %17) #19
  %72 = load i32, ptr %18, align 4
  switch i32 %72, label %140 [
    i32 6, label %73
    i32 4, label %76
  ]

73:                                               ; preds = %71
  %74 = load ptr, ptr %15, align 8, !tbaa !48
  %75 = getelementptr inbounds nuw %struct._Bucket, ptr %74, i32 1
  store ptr %75, ptr %15, align 8, !tbaa !48
  br label %49

76:                                               ; preds = %71, %49
  call void @llvm.lifetime.end.p0(i64 8, ptr %16) #19
  call void @llvm.lifetime.end.p0(i64 8, ptr %15) #19
  call void @llvm.lifetime.end.p0(i64 8, ptr %14) #19
  br label %77

77:                                               ; preds = %76
  br label %78

78:                                               ; preds = %77
  %79 = load ptr, ptr %13, align 8, !tbaa !19
  %80 = icmp ne ptr %79, null
  call void @llvm.assume(i1 %80)
  %81 = load ptr, ptr %6, align 8, !tbaa !73
  %82 = call ptr @func_filename(ptr noundef %81)
  %83 = load ptr, ptr %6, align 8, !tbaa !73
  %84 = call i32 @func_lineno(ptr noundef %83)
  %85 = load ptr, ptr %12, align 8, !tbaa !19
  %86 = getelementptr inbounds nuw %struct._zend_string, ptr %85, i32 0, i32 3
  %87 = getelementptr inbounds [1 x i8], ptr %86, i64 0, i64 0
  %88 = load ptr, ptr %11, align 8, !tbaa !19
  %89 = getelementptr inbounds nuw %struct._zend_string, ptr %88, i32 0, i32 3
  %90 = getelementptr inbounds [1 x i8], ptr %89, i64 0, i64 0
  %91 = load ptr, ptr %13, align 8, !tbaa !19
  %92 = getelementptr inbounds nuw %struct._zend_string, ptr %91, i32 0, i32 3
  %93 = getelementptr inbounds [1 x i8], ptr %92, i64 0, i64 0
  call void (i32, ptr, i32, ptr, ...) @zend_error_at(i32 noundef 64, ptr noundef %82, i32 noundef %84, ptr noundef @.str.51, ptr noundef %87, ptr noundef %90, ptr noundef %93)
  call void @llvm.lifetime.end.p0(i64 8, ptr %13) #19
  br label %137

94:                                               ; preds = %5
  %95 = load i32, ptr %10, align 4, !tbaa !4
  %96 = icmp eq i32 %95, 1
  br i1 %96, label %97, label %125

97:                                               ; preds = %94
  call void @llvm.lifetime.start.p0(i64 8, ptr %19) #19
  %98 = load ptr, ptr %6, align 8, !tbaa !73
  %99 = getelementptr inbounds nuw %struct.anon.13, ptr %98, i32 0, i32 9
  %100 = load ptr, ptr %99, align 8, !tbaa !46
  %101 = call ptr @zend_get_attribute_str(ptr noundef %100, ptr noundef @.str.52, i64 noundef 20)
  store ptr %101, ptr %19, align 8, !tbaa !214
  %102 = load ptr, ptr %19, align 8, !tbaa !214
  %103 = icmp ne ptr %102, null
  br i1 %103, label %124, label %104

104:                                              ; preds = %97
  %105 = load ptr, ptr %6, align 8, !tbaa !73
  %106 = call ptr @func_filename(ptr noundef %105)
  %107 = load ptr, ptr %6, align 8, !tbaa !73
  %108 = call i32 @func_lineno(ptr noundef %107)
  %109 = load ptr, ptr %12, align 8, !tbaa !19
  %110 = getelementptr inbounds nuw %struct._zend_string, ptr %109, i32 0, i32 3
  %111 = getelementptr inbounds [1 x i8], ptr %110, i64 0, i64 0
  %112 = load ptr, ptr %11, align 8, !tbaa !19
  %113 = getelementptr inbounds nuw %struct._zend_string, ptr %112, i32 0, i32 3
  %114 = getelementptr inbounds [1 x i8], ptr %113, i64 0, i64 0
  call void (i32, ptr, i32, ptr, ...) @zend_error_at(i32 noundef 8192, ptr noundef %106, i32 noundef %108, ptr noundef @.str.53, ptr noundef %111, ptr noundef %114)
  %115 = load ptr, ptr getelementptr inbounds nuw (%struct._zend_executor_globals, ptr @executor_globals, i32 0, i32 54), align 8, !tbaa !205
  %116 = icmp ne ptr %115, null
  br i1 %116, label %117, label %123

117:                                              ; preds = %104
  %118 = load ptr, ptr %9, align 8, !tbaa !8
  %119 = getelementptr inbounds nuw %struct._zend_class_entry, ptr %118, i32 0, i32 1
  %120 = load ptr, ptr %119, align 8, !tbaa !70
  %121 = getelementptr inbounds nuw %struct._zend_string, ptr %120, i32 0, i32 3
  %122 = getelementptr inbounds [1 x i8], ptr %121, i64 0, i64 0
  call void (ptr, ...) @zend_exception_uncaught_error(ptr noundef @.str.54, ptr noundef %122) #21
  unreachable

123:                                              ; preds = %104
  br label %124

124:                                              ; preds = %123, %97
  call void @llvm.lifetime.end.p0(i64 8, ptr %19) #19
  br label %136

125:                                              ; preds = %94
  %126 = load ptr, ptr %6, align 8, !tbaa !73
  %127 = call ptr @func_filename(ptr noundef %126)
  %128 = load ptr, ptr %6, align 8, !tbaa !73
  %129 = call i32 @func_lineno(ptr noundef %128)
  %130 = load ptr, ptr %12, align 8, !tbaa !19
  %131 = getelementptr inbounds nuw %struct._zend_string, ptr %130, i32 0, i32 3
  %132 = getelementptr inbounds [1 x i8], ptr %131, i64 0, i64 0
  %133 = load ptr, ptr %11, align 8, !tbaa !19
  %134 = getelementptr inbounds nuw %struct._zend_string, ptr %133, i32 0, i32 3
  %135 = getelementptr inbounds [1 x i8], ptr %134, i64 0, i64 0
  call void (i32, ptr, i32, ptr, ...) @zend_error_at(i32 noundef 64, ptr noundef %127, i32 noundef %129, ptr noundef @.str.55, ptr noundef %132, ptr noundef %135)
  br label %136

136:                                              ; preds = %125, %124
  br label %137

137:                                              ; preds = %136, %78
  %138 = load ptr, ptr %12, align 8, !tbaa !19
  call void @zend_string_efree(ptr noundef %138)
  %139 = load ptr, ptr %11, align 8, !tbaa !19
  call void @zend_string_efree(ptr noundef %139)
  call void @llvm.lifetime.end.p0(i64 8, ptr %12) #19
  call void @llvm.lifetime.end.p0(i64 8, ptr %11) #19
  ret void

140:                                              ; preds = %71
  unreachable
}