; Function Attrs: nounwind uwtable
define internal fastcc void @emit_incompatible_method_error(ptr noundef readonly captures(none) %0, ptr noundef %1, ptr noundef readonly captures(none) %2, ptr noundef %3, i32 noundef range(i32 3, 2) %4) unnamed_addr #2 {
  %6 = tail call fastcc ptr @zend_get_function_declaration(ptr noundef %2, ptr noundef %3)
  %7 = tail call fastcc ptr @zend_get_function_declaration(ptr noundef %0, ptr noundef %1)
  switch i32 %4, label %61 [
    i32 -1, label %8
    i32 1, label %40
  ]

8:                                                ; preds = %5
  %9 = load ptr, ptr getelementptr inbounds nuw (i8, ptr @compiler_globals, i64 544), align 8, !tbaa !190
  %10 = getelementptr inbounds nuw i8, ptr %9, i64 16
  %11 = load ptr, ptr %10, align 8, !tbaa !21
  %12 = getelementptr inbounds nuw i8, ptr %9, i64 24
  %13 = load i32, ptr %12, align 8, !tbaa !97
  %14 = zext i32 %13 to i64
  %15 = getelementptr inbounds nuw %struct._Bucket, ptr %11, i64 %14
  %16 = getelementptr inbounds nuw i8, ptr %9, i64 8
  %17 = load i32, ptr %16, align 8, !tbaa !21
  %18 = and i32 %17, 4
  %.not39 = icmp eq i32 %18, 0
  tail call void @llvm.assume(i1 %.not39)
  %.not4051 = icmp eq i32 %13, 0
  br i1 %.not4051, label %.loopexit, label %.lr.ph

.lr.ph:                                           ; preds = %8, %25
  %.03652 = phi ptr [ %26, %25 ], [ %11, %8 ]
  %19 = getelementptr inbounds nuw i8, ptr %.03652, i64 8
  %20 = load i8, ptr %19, align 8, !tbaa !21
  %21 = icmp eq i8 %20, 0
  br i1 %21, label %25, label %22, !prof !95

22:                                               ; preds = %.lr.ph
  %23 = getelementptr inbounds nuw i8, ptr %.03652, i64 24
  %24 = load ptr, ptr %23, align 8, !tbaa !125
  br label %.loopexit

25:                                               ; preds = %.lr.ph
  %26 = getelementptr inbounds nuw i8, ptr %.03652, i64 32
  %.not40 = icmp eq ptr %26, %15
  br i1 %.not40, label %.loopexit, label %.lr.ph

.loopexit:                                        ; preds = %25, %8, %22
  %.1 = phi ptr [ %24, %22 ], [ null, %8 ], [ null, %25 ]
  %27 = icmp ne ptr %.1, null
  tail call void @llvm.assume(i1 %27)
  %28 = load i8, ptr %0, align 8, !tbaa !21
  %29 = icmp eq i8 %28, 2
  br i1 %29, label %30, label %func_lineno.exit44

30:                                               ; preds = %.loopexit
  %31 = getelementptr inbounds nuw i8, ptr %0, i64 168
  %32 = load ptr, ptr %31, align 8, !tbaa !21
  %33 = getelementptr inbounds nuw i8, ptr %0, i64 176
  %34 = load i32, ptr %33, align 8, !tbaa !21
  br label %func_lineno.exit44

func_lineno.exit44:                               ; preds = %.loopexit, %30
  %35 = phi ptr [ %32, %30 ], [ null, %.loopexit ]
  %36 = phi i32 [ %34, %30 ], [ 0, %.loopexit ]
  %37 = getelementptr inbounds nuw i8, ptr %7, i64 24
  %38 = getelementptr inbounds nuw i8, ptr %6, i64 24
  %39 = getelementptr inbounds nuw i8, ptr %.1, i64 24
  tail call void (i32, ptr, i32, ptr, ...) @zend_error_at(i32 noundef 64, ptr noundef %35, i32 noundef %36, ptr noundef nonnull @.str.51, ptr noundef nonnull %37, ptr noundef nonnull %38, ptr noundef nonnull %39) #17
  br label %73

40:                                               ; preds = %5
  %41 = getelementptr inbounds nuw i8, ptr %0, i64 48
  %42 = load ptr, ptr %41, align 8, !tbaa !21
  %43 = tail call ptr @zend_get_attribute_str(ptr noundef %42, ptr noundef nonnull @.str.52, i64 noundef 20) #17
  %.not = icmp eq ptr %43, null
  br i1 %.not, label %44, label %73

44:                                               ; preds = %40
  %45 = load i8, ptr %0, align 8, !tbaa !21
  %46 = icmp eq i8 %45, 2
  br i1 %46, label %47, label %func_lineno.exit43

47:                                               ; preds = %44
  %48 = getelementptr inbounds nuw i8, ptr %0, i64 168
  %49 = load ptr, ptr %48, align 8, !tbaa !21
  %50 = getelementptr inbounds nuw i8, ptr %0, i64 176
  %51 = load i32, ptr %50, align 8, !tbaa !21
  br label %func_lineno.exit43

func_lineno.exit43:                               ; preds = %44, %47
  %52 = phi ptr [ %49, %47 ], [ null, %44 ]
  %53 = phi i32 [ %51, %47 ], [ 0, %44 ]
  %54 = getelementptr inbounds nuw i8, ptr %7, i64 24
  %55 = getelementptr inbounds nuw i8, ptr %6, i64 24
  tail call void (i32, ptr, i32, ptr, ...) @zend_error_at(i32 noundef 8192, ptr noundef %52, i32 noundef %53, ptr noundef nonnull @.str.53, ptr noundef nonnull %54, ptr noundef nonnull %55) #17
  %56 = load ptr, ptr getelementptr inbounds nuw (i8, ptr @executor_globals, i64 960), align 8, !tbaa !191
  %.not38 = icmp eq ptr %56, null
  br i1 %.not38, label %73, label %57

57:                                               ; preds = %func_lineno.exit43
  %58 = getelementptr inbounds nuw i8, ptr %3, i64 8
  %59 = load ptr, ptr %58, align 8, !tbaa !37
  %60 = getelementptr inbounds nuw i8, ptr %59, i64 24
  tail call void (ptr, ...) @zend_exception_uncaught_error(ptr noundef nonnull @.str.54, ptr noundef nonnull %60) #19
  unreachable

61:                                               ; preds = %5
  %62 = load i8, ptr %0, align 8, !tbaa !21
  %63 = icmp eq i8 %62, 2
  br i1 %63, label %64, label %func_lineno.exit

64:                                               ; preds = %61
  %65 = getelementptr inbounds nuw i8, ptr %0, i64 168
  %66 = load ptr, ptr %65, align 8, !tbaa !21
  %67 = getelementptr inbounds nuw i8, ptr %0, i64 176
  %68 = load i32, ptr %67, align 8, !tbaa !21
  br label %func_lineno.exit

func_lineno.exit:                                 ; preds = %61, %64
  %69 = phi ptr [ %66, %64 ], [ null, %61 ]
  %70 = phi i32 [ %68, %64 ], [ 0, %61 ]
  %71 = getelementptr inbounds nuw i8, ptr %7, i64 24
  %72 = getelementptr inbounds nuw i8, ptr %6, i64 24
  tail call void (i32, ptr, i32, ptr, ...) @zend_error_at(i32 noundef 64, ptr noundef %69, i32 noundef %70, ptr noundef nonnull @.str.55, ptr noundef nonnull %71, ptr noundef nonnull %72) #17
  br label %73

73:                                               ; preds = %40, %func_lineno.exit43, %func_lineno.exit, %func_lineno.exit44
  tail call void @_efree(ptr noundef %7) #17
  tail call void @_efree(ptr noundef %6) #17
  ret void
}